target datalayout = "e-m:e-p270:32:32-p271:32:32-p272:64:64-i64:64-i128:128-f80:128-n8:16:32:64-S128"
target triple = "x86_64-pc-linux-gnu"

@.str.3 = private unnamed_addr constant [29 x i8] c"../openssl/test/aesgcmtest.c\00", align 1
@.str.8 = private unnamed_addr constant [27 x i8] c"ctx = EVP_CIPHER_CTX_new()\00", align 1
@.str.26 = private unnamed_addr constant [27 x i8] c"cipher = EVP_aes_192_gcm()\00", align 1
@.str.27 = private unnamed_addr constant [50 x i8] c"EVP_EncryptInit_ex(ctx, cipher, NULL, NULL, NULL)\00", align 1
@.str.28 = private unnamed_addr constant [38 x i8] c"EVP_CIPHER_CTX_set_key_length(ctx, 2)\00", align 1
@.str.29 = private unnamed_addr constant [2 x i8] c"0\00", align 1

; Function Attrs: nounwind uwtable
define internal i32 @badkeylen_test() #0 {
  %1 = alloca i32, align 4
  %2 = alloca ptr, align 8
  %3 = alloca ptr, align 8
  call void @llvm.lifetime.start.p0(i64 4, ptr %1) #3
  call void @llvm.lifetime.start.p0(i64 8, ptr %2) #3
  store ptr null, ptr %2, align 8, !tbaa !8
  call void @llvm.lifetime.start.p0(i64 8, ptr %3) #3
  %4 = call ptr @EVP_aes_192_gcm()
  store ptr %4, ptr %3, align 8, !tbaa !11
  %5 = call i32 @test_ptr(ptr noundef @.str.3, i32 noundef 111, ptr noundef @.str.26, ptr noundef %4)
  %6 = icmp ne i32 %5, 0
  br i1 %6, label %7, label %24

7:                                                ; preds = %0
  %8 = call ptr @EVP_CIPHER_CTX_new()
  store ptr %8, ptr %2, align 8, !tbaa !8
  %9 = call i32 @test_ptr(ptr noundef @.str.3, i32 noundef 112, ptr noundef @.str.8, ptr noundef %8)
  %10 = icmp ne i32 %9, 0
  br i1 %10, label %11, label %24

11:                                               ; preds = %7
  %12 = load ptr, ptr %2, align 8, !tbaa !8
  %13 = load ptr, ptr %3, align 8, !tbaa !11
  %14 = call i32 @EVP_EncryptInit_ex(ptr noundef %12, ptr noundef %13, ptr noundef null, ptr noundef null, ptr noundef null)
  %15 = icmp ne i32 %14, 0
  %16 = zext i1 %15 to i32
  %17 = call i32 @test_true(ptr noundef @.str.3, i32 noundef 113, ptr noundef @.str.27, i32 noundef %16)
  %18 = icmp ne i32 %17, 0
  br i1 %18, label %19, label %24

19:                                               ; preds = %11
  %20 = load ptr, ptr %2, align 8, !tbaa !8
  %21 = call i32 @EVP_CIPHER_CTX_set_key_length(ptr noundef %20, i32 noundef 2)
  %22 = call i32 @test_int_le(ptr noundef @.str.3, i32 noundef 114, ptr noundef @.str.28, ptr noundef @.str.29, i32 noundef %21, i32 noundef 0)
  %23 = icmp ne i32 %22, 0
  br label %24

24:                                               ; preds = %19, %11, %7, %0
  %25 = phi i1 [ false, %11 ], [ false, %7 ], [ false, %0 ], [ %23, %19 ]
  %26 = zext i1 %25 to i32
  store i32 %26, ptr %1, align 4, !tbaa !4
  %27 = load ptr, ptr %2, align 8, !tbaa !8
  call void @EVP_CIPHER_CTX_free(ptr noundef %27)
  %28 = load i32, ptr %1, align 4, !tbaa !4
  call void @llvm.lifetime.end.p0(i64 8, ptr %3) #3
  call void @llvm.lifetime.end.p0(i64 8, ptr %2) #3
  call void @llvm.lifetime.end.p0(i64 4, ptr %1) #3
  ret i32 %28
}