; Function Attrs: nounwind uwtable
define internal range(i32 0, 2) i32 @badkeylen_test() #0 {
  %1 = tail call ptr @EVP_aes_192_gcm() #3
  %2 = tail call i32 @test_ptr(ptr noundef nonnull @.str.3, i32 noundef 111, ptr noundef nonnull @.str.26, ptr noundef %1) #3
  %.not = icmp eq i32 %2, 0
  br i1 %.not, label %16, label %3

3:                                                ; preds = %0
  %4 = tail call ptr @EVP_CIPHER_CTX_new() #3
  %5 = tail call i32 @test_ptr(ptr noundef nonnull @.str.3, i32 noundef 112, ptr noundef nonnull @.str.8, ptr noundef %4) #3
  %.not4 = icmp eq i32 %5, 0
  br i1 %.not4, label %16, label %6

6:                                                ; preds = %3
  %7 = tail call i32 @EVP_EncryptInit_ex(ptr noundef %4, ptr noundef %1, ptr noundef null, ptr noundef null, ptr noundef null) #3
  %8 = icmp ne i32 %7, 0
  %9 = zext i1 %8 to i32
  %10 = tail call i32 @test_true(ptr noundef nonnull @.str.3, i32 noundef 113, ptr noundef nonnull @.str.27, i32 noundef %9) #3
  %.not5 = icmp eq i32 %10, 0
  br i1 %.not5, label %16, label %11

11:                                               ; preds = %6
  %12 = tail call i32 @EVP_CIPHER_CTX_set_key_length(ptr noundef %4, i32 noundef 2) #3
  %13 = tail call i32 @test_int_le(ptr noundef nonnull @.str.3, i32 noundef 114, ptr noundef nonnull @.str.28, ptr noundef nonnull @.str.29, i32 noundef %12, i32 noundef 0) #3
  %14 = icmp ne i32 %13, 0
  %15 = zext i1 %14 to i32
  br label %16

16:                                               ; preds = %11, %6, %3, %0
  %.0 = phi ptr [ %4, %11 ], [ %4, %6 ], [ %4, %3 ], [ null, %0 ]
  %17 = phi i32 [ %15, %11 ], [ 0, %6 ], [ 0, %3 ], [ 0, %0 ]
  tail call void @EVP_CIPHER_CTX_free(ptr noundef %.0) #3
  ret i32 %17
}